target datalayout = "e-m:e-p270:32:32-p271:32:32-p272:64:64-i64:64-i128:128-f80:128-n8:16:32:64-S128"
target triple = "x86_64-pc-linux-gnu"

%struct.io_buffer_for_yield_instance_arguments = type { i64, i64, i64, i32 }

; Function Attrs: nounwind sspstrong uwtable
define internal i64 @io_buffer_for_yield_instance(i64 noundef %0) #0 {
  %2 = alloca i64, align 8
  %3 = alloca ptr, align 8
  store i64 %0, ptr %2, align 8, !tbaa !20
  call void @llvm.lifetime.start.p0(i64 8, ptr %3) #22
  %4 = load i64, ptr %2, align 8, !tbaa !20
  %5 = inttoptr i64 %4 to ptr
  store ptr %5, ptr %3, align 8, !tbaa !30
  %6 = load ptr, ptr %3, align 8, !tbaa !30
  %7 = getelementptr inbounds nuw %struct.io_buffer_for_yield_instance_arguments, ptr %6, i32 0, i32 0
  %8 = load i64, ptr %7, align 8, !tbaa !25
  %9 = load ptr, ptr %3, align 8, !tbaa !30
  %10 = getelementptr inbounds nuw %struct.io_buffer_for_yield_instance_arguments, ptr %9, i32 0, i32 1
  %11 = load i64, ptr %10, align 8, !tbaa !27
  %12 = load ptr, ptr %3, align 8, !tbaa !30
  %13 = getelementptr inbounds nuw %struct.io_buffer_for_yield_instance_arguments, ptr %12, i32 0, i32 3
  %14 = load i32, ptr %13, align 8, !tbaa !29
  %15 = call i64 @io_buffer_for_make_instance(i64 noundef %8, i64 noundef %11, i32 noundef %14)
  %16 = load ptr, ptr %3, align 8, !tbaa !30
  %17 = getelementptr inbounds nuw %struct.io_buffer_for_yield_instance_arguments, ptr %16, i32 0, i32 2
  store i64 %15, ptr %17, align 8, !tbaa !28
  %18 = load ptr, ptr %3, align 8, !tbaa !30
  %19 = getelementptr inbounds nuw %struct.io_buffer_for_yield_instance_arguments, ptr %18, i32 0, i32 1
  %20 = load i64, ptr %19, align 8, !tbaa !27
  %21 = call i64 @rb_str_locktmp(i64 noundef %20)
  %22 = load ptr, ptr %3, align 8, !tbaa !30
  %23 = getelementptr inbounds nuw %struct.io_buffer_for_yield_instance_arguments, ptr %22, i32 0, i32 2
  %24 = load i64, ptr %23, align 8, !tbaa !28
  %25 = call i64 @rb_yield(i64 noundef %24)
  call void @llvm.lifetime.end.p0(i64 8, ptr %3) #22
  ret i64 %25
}