; Function Attrs: nounwind sspstrong uwtable
define internal i64 @io_buffer_for_yield_instance(i64 noundef %0) #0 {
  %2 = inttoptr i64 %0 to ptr
  %3 = load i64, ptr %2, align 8, !tbaa !23
  %4 = getelementptr inbounds nuw i8, ptr %2, i64 8
  %5 = load i64, ptr %4, align 8, !tbaa !25
  %6 = getelementptr inbounds nuw i8, ptr %2, i64 24
  %7 = load i32, ptr %6, align 8, !tbaa !27
  %8 = tail call fastcc i64 @io_buffer_for_make_instance(i64 noundef %3, i64 noundef %5, i32 noundef %7)
  %9 = getelementptr inbounds nuw i8, ptr %2, i64 16
  store i64 %8, ptr %9, align 8, !tbaa !26
  %10 = load i64, ptr %4, align 8, !tbaa !25
  %11 = tail call i64 @rb_str_locktmp(i64 noundef %10) #25
  %12 = load i64, ptr %9, align 8, !tbaa !26
  %13 = tail call i64 @rb_yield(i64 noundef %12) #25
  ret i64 %13
}